target datalayout = "e-m:e-p270:32:32-p271:32:32-p272:64:64-i64:64-i128:128-f80:128-n8:16:32:64-S128"
target triple = "x86_64-unknown-linux-gnu"

@_ZN2EA4StdCL12kDaysInMonthE = internal constant [12 x i32] [i32 31, i32 28, i32 31, i32 30, i32 31, i32 30, i32 31, i32 31, i32 30, i32 31, i32 30, i32 31], align 16

; Function Attrs: mustprogress nounwind uwtable
define dso_local noundef zeroext i1 @_ZN2EA4StdC10IsLeapYearEj(i32 noundef %nYear) #3 {
entry:
  %nYear.addr = alloca i32, align 4
  store i32 %nYear, ptr %nYear.addr, align 4
  %0 = load i32, ptr %nYear.addr, align 4
  %and = and i32 %0, 3
  %tobool = icmp ne i32 %and, 0
  br i1 %tobool, label %lor.rhs, label %land.lhs.true

land.lhs.true:                                    ; preds = %entry
  %1 = load i32, ptr %nYear.addr, align 4
  %rem = urem i32 %1, 100
  %tobool1 = icmp ne i32 %rem, 0
  br i1 %tobool1, label %lor.end, label %lor.rhs

lor.rhs:                                          ; preds = %land.lhs.true, %entry
  %2 = load i32, ptr %nYear.addr, align 4
  %rem2 = urem i32 %2, 400
  %tobool3 = icmp ne i32 %rem2, 0
  %lnot = xor i1 %tobool3, true
  br label %lor.end

lor.end:                                          ; preds = %lor.rhs, %land.lhs.true
  %3 = phi i1 [ true, %land.lhs.true ], [ %lnot, %lor.rhs ]
  ret i1 %3
}

; Function Attrs: mustprogress nounwind uwtable
define dso_local noundef i32 @_ZN2EA4StdC14GetDaysInMonthEjj(i32 noundef %nMonth, i32 noundef %nYear) #3 {
entry:
  %retval = alloca i32, align 4
  %nMonth.addr = alloca i32, align 4
  %nYear.addr = alloca i32, align 4
  %isLeapYear = alloca i8, align 1
  store i32 %nMonth, ptr %nMonth.addr, align 4
  store i32 %nYear, ptr %nYear.addr, align 4
  %0 = load i32, ptr %nMonth.addr, align 4
  %cmp = icmp uge i32 %0, 1
  br i1 %cmp, label %land.lhs.true, label %if.end9

land.lhs.true:                                    ; preds = %entry
  %1 = load i32, ptr %nMonth.addr, align 4
  %cmp1 = icmp ule i32 %1, 12
  br i1 %cmp1, label %if.then, label %if.end9

if.then:                                          ; preds = %land.lhs.true
  %2 = load i32, ptr %nMonth.addr, align 4
  %cmp2 = icmp eq i32 %2, 2
  br i1 %cmp2, label %if.then3, label %if.end5

if.then3:                                         ; preds = %if.then
  %3 = load i32, ptr %nYear.addr, align 4
  %call = call noundef zeroext i1 @_ZN2EA4StdC10IsLeapYearEj(i32 noundef %3)
  %frombool = zext i1 %call to i8
  store i8 %frombool, ptr %isLeapYear, align 1
  %4 = load i8, ptr %isLeapYear, align 1
  %tobool = trunc i8 %4 to i1
  br i1 %tobool, label %if.then4, label %if.end

if.then4:                                         ; preds = %if.then3
  %5 = load i32, ptr %nMonth.addr, align 4
  %sub = sub i32 %5, 1
  %idxprom = zext i32 %sub to i64
  %arrayidx = getelementptr inbounds [12 x i32], ptr @_ZN2EA4StdCL12kDaysInMonthE, i64 0, i64 %idxprom
  %6 = load i32, ptr %arrayidx, align 4
  %add = add i32 %6, 1
  store i32 %add, ptr %retval, align 4
  br label %return

if.end:                                           ; preds = %if.then3
  br label %if.end5

if.end5:                                          ; preds = %if.end, %if.then
  %7 = load i32, ptr %nMonth.addr, align 4
  %sub6 = sub i32 %7, 1
  %idxprom7 = zext i32 %sub6 to i64
  %arrayidx8 = getelementptr inbounds [12 x i32], ptr @_ZN2EA4StdCL12kDaysInMonthE, i64 0, i64 %idxprom7
  %8 = load i32, ptr %arrayidx8, align 4
  store i32 %8, ptr %retval, align 4
  br label %return

if.end9:                                          ; preds = %land.lhs.true, %entry
  store i32 0, ptr %retval, align 4
  br label %return

return:                                           ; preds = %if.end9, %if.end5, %if.then4
  %9 = load i32, ptr %retval, align 4
  ret i32 %9
}