; Function Attrs: mustprogress nofree norecurse nosync nounwind willreturn memory(none) uwtable
define dso_local noundef i32 @_ZN2EA4StdC14GetDaysInMonthEjj(i32 noundef %nMonth, i32 noundef %nYear) local_unnamed_addr #4 {
entry:
  %0 = add i32 %nMonth, -1
  %or.cond = icmp ult i32 %0, 12
  br i1 %or.cond, label %if.then, label %return

if.then:                                          ; preds = %entry
  %cmp2 = icmp eq i32 %nMonth, 2
  br i1 %cmp2, label %if.then3, label %if.end5

if.then3:                                         ; preds = %if.then
  %and.i = and i32 %nYear, 3
  %tobool.not.i = icmp eq i32 %and.i, 0
  %rem.i = urem i32 %nYear, 100
  %tobool1.not.i = icmp ne i32 %rem.i, 0
  %or.cond.i.not6 = and i1 %tobool.not.i, %tobool1.not.i
  %rem2.i = urem i32 %nYear, 400
  %tobool3.not.i = icmp eq i32 %rem2.i, 0
  %or.cond5 = or i1 %tobool3.not.i, %or.cond.i.not6
  br i1 %or.cond5, label %return, label %if.end5

if.end5:                                          ; preds = %if.then3, %if.then
  %idxprom7 = zext nneg i32 %0 to i64
  %arrayidx8 = getelementptr inbounds nuw [12 x i32], ptr @_ZN2EA4StdCL12kDaysInMonthE, i64 0, i64 %idxprom7
  %1 = load i32, ptr %arrayidx8, align 4
  br label %return

return:                                           ; preds = %if.then3, %entry, %if.end5
  %retval.0 = phi i32 [ %1, %if.end5 ], [ 0, %entry ], [ 29, %if.then3 ]
  ret i32 %retval.0
}